; Function Attrs: mustprogress nofree norecurse nosync nounwind willreturn memory(read, inaccessiblemem: none) uwtable
define noundef i32 @_ZNK19OpenColorIO_v2_5dev13ViewTransform16getNumCategoriesEv(ptr noundef nonnull readonly align 8 captures(none) dereferenceable(8) %0) local_unnamed_addr #4 align 2 {
  %2 = load ptr, ptr %0, align 8, !tbaa !22
  %3 = getelementptr inbounds nuw i8, ptr %2, i64 144
  %4 = getelementptr inbounds nuw i8, ptr %2, i64 152
  %5 = load ptr, ptr %4, align 8, !tbaa !48
  %6 = load ptr, ptr %3, align 8, !tbaa !47
  %7 = ptrtoint ptr %5 to i64
  %8 = ptrtoint ptr %6 to i64
  %9 = sub i64 %7, %8
  %10 = lshr exact i64 %9, 5
  %11 = trunc i64 %10 to i32
  ret i32 %11
}